target datalayout = "e-m:e-p270:32:32-p271:32:32-p272:64:64-i64:64-i128:128-f80:128-n8:16:32:64-S128"
target triple = "x86_64-pc-linux-gnu"

; Function Attrs: nounwind uwtable
define zeroext i8 @ff_sbc_crc8(ptr noundef %0, ptr noundef %1, i64 noundef %2) #0 {
  %4 = alloca ptr, align 8
  %5 = alloca ptr, align 8
  %6 = alloca i64, align 8
  %7 = alloca i64, align 8
  %8 = alloca i32, align 4
  %9 = alloca i8, align 1
  %10 = alloca i8, align 1
  %11 = alloca i8, align 1
  store ptr %0, ptr %4, align 8, !tbaa !4
  store ptr %1, ptr %5, align 8, !tbaa !9
  store i64 %2, ptr %6, align 8, !tbaa !11
  call void @llvm.lifetime.start.p0(i64 8, ptr %7) #3
  %12 = load i64, ptr %6, align 8, !tbaa !11
  %13 = lshr i64 %12, 3
  store i64 %13, ptr %7, align 8, !tbaa !11
  call void @llvm.lifetime.start.p0(i64 4, ptr %8) #3
  %14 = load i64, ptr %6, align 8, !tbaa !11
  %15 = and i64 %14, 7
  %16 = trunc i64 %15 to i32
  store i32 %16, ptr %8, align 4, !tbaa !13
  call void @llvm.lifetime.start.p0(i64 1, ptr %9) #3
  %17 = load ptr, ptr %4, align 8, !tbaa !4
  %18 = load ptr, ptr %5, align 8, !tbaa !9
  %19 = load i64, ptr %7, align 8, !tbaa !11
  %20 = call i32 @av_crc(ptr noundef %17, i32 noundef 15, ptr noundef %18, i64 noundef %19) #4
  %21 = trunc i32 %20 to i8
  store i8 %21, ptr %9, align 1, !tbaa !15
  %22 = load i32, ptr %8, align 4, !tbaa !13
  %23 = icmp ne i32 %22, 0
  br i1 %23, label %24, label %54

24:                                               ; preds = %3
  call void @llvm.lifetime.start.p0(i64 1, ptr %10) #3
  %25 = load ptr, ptr %5, align 8, !tbaa !9
  %26 = load i64, ptr %7, align 8, !tbaa !11
  %27 = getelementptr inbounds nuw i8, ptr %25, i64 %26
  %28 = load i8, ptr %27, align 1, !tbaa !15
  store i8 %28, ptr %10, align 1, !tbaa !15
  br label %29

29:                                               ; preds = %33, %24
  %30 = load i32, ptr %8, align 4, !tbaa !13
  %31 = add nsw i32 %30, -1
  store i32 %31, ptr %8, align 4, !tbaa !13
  %32 = icmp ne i32 %30, 0
  br i1 %32, label %33, label %53

33:                                               ; preds = %29
  call void @llvm.lifetime.start.p0(i64 1, ptr %11) #3
  %34 = load i8, ptr %10, align 1, !tbaa !15
  %35 = zext i8 %34 to i32
  %36 = load i8, ptr %9, align 1, !tbaa !15
  %37 = zext i8 %36 to i32
  %38 = xor i32 %35, %37
  %39 = trunc i32 %38 to i8
  store i8 %39, ptr %11, align 1, !tbaa !15
  %40 = load i8, ptr %9, align 1, !tbaa !15
  %41 = zext i8 %40 to i32
  %42 = shl i32 %41, 1
  %43 = load i8, ptr %11, align 1, !tbaa !15
  %44 = sext i8 %43 to i32
  %45 = ashr i32 %44, 7
  %46 = and i32 %45, 29
  %47 = xor i32 %42, %46
  %48 = trunc i32 %47 to i8
  store i8 %48, ptr %9, align 1, !tbaa !15
  %49 = load i8, ptr %10, align 1, !tbaa !15
  %50 = zext i8 %49 to i32
  %51 = shl i32 %50, 1
  %52 = trunc i32 %51 to i8
  store i8 %52, ptr %10, align 1, !tbaa !15
  call void @llvm.lifetime.end.p0(i64 1, ptr %11) #3
  br label %29, !llvm.loop !16

53:                                               ; preds = %29
  call void @llvm.lifetime.end.p0(i64 1, ptr %10) #3
  br label %54

54:                                               ; preds = %53, %3
  %55 = load i8, ptr %9, align 1, !tbaa !15
  call void @llvm.lifetime.end.p0(i64 1, ptr %9) #3
  call void @llvm.lifetime.end.p0(i64 4, ptr %8) #3
  call void @llvm.lifetime.end.p0(i64 8, ptr %7) #3
  ret i8 %55
}