; Function Attrs: nofree nounwind memory(read) uwtable
define zeroext i8 @ff_sbc_crc8(ptr noundef %0, ptr noundef %1, i64 noundef %2) local_unnamed_addr #0 {
  %4 = lshr i64 %2, 3
  %5 = trunc i64 %2 to i32
  %6 = and i32 %5, 7
  %7 = tail call i32 @av_crc(ptr noundef %0, i32 noundef 15, ptr noundef %1, i64 noundef %4) #7
  %8 = trunc i32 %7 to i8
  %.not = icmp eq i32 %6, 0
  br i1 %.not, label %.loopexit, label %9

9:                                                ; preds = %3
  %10 = getelementptr inbounds nuw i8, ptr %1, i64 %4
  %11 = load i8, ptr %10, align 1, !tbaa !4
  br label %12

12:                                               ; preds = %9, %12
  %.020 = phi i32 [ %6, %9 ], [ %13, %12 ]
  %.01419 = phi i8 [ %11, %9 ], [ %18, %12 ]
  %.118 = phi i8 [ %8, %9 ], [ %17, %12 ]
  %13 = add nsw i32 %.020, -1
  %14 = xor i8 %.01419, %.118
  %15 = shl i8 %.118, 1
  %isneg = icmp slt i8 %14, 0
  %16 = select i1 %isneg, i8 29, i8 0
  %17 = xor i8 %16, %15
  %18 = shl i8 %.01419, 1
  %.not17 = icmp eq i32 %13, 0
  br i1 %.not17, label %.loopexit, label %12, !llvm.loop !7

.loopexit:                                        ; preds = %12, %3
  %.015 = phi i8 [ %8, %3 ], [ %17, %12 ]
  ret i8 %.015
}